(dp1
S'N28206|18486|10.0'
p2
I731926
sS'N28552|33785|10.0'
p3
I21667
sS'N28319|96320|10.0'
p4
I1190592
sS'N28608|55781|10.0'
p5
I871575
sS'N28478|99725|10.0'
p6
I1012433
sS'N28322|19298|10.0'
p7
I825826
sS'N28749|20831|10.0'
p8
I656079
sS'N28849|43631|10.0'
p9
I260029
sS'N28731|30184|10.0'
p10
I705440
sS'N28980|14329|10.0'
p11
I87880
sS'N28269|34870|10.0'
p12
I201041
sS'N28356|7241|10.0'
p13
I515241
sS'N28606|21366|10.0'
p14
I420143
sS'N28661|94685|10.0'
p15
I657283
sS'N28191|710|10.0'
p16
I813788
sS'N28440|38458|10.0'
p17
I517648
sS'N28244|17795|10.0'
p18
I412920
sS'N28261|40288|10.0'
p19
I428569
sS'N28865|35166|10.0'
p20
I729518
sS'N28446|71818|10.0'
p21
I42135
sS'N28489|56847|10.0'
p22
I912508
sS'N28398|87920|10.0'
p23
I210672
sS'N29000|92795|10.0'
p24
I1148460
sS'N28242|18684|10.0'
p25
I456256
sS'N29005|79655|10.0'
p26
I468292
sS'N29152|3518|10.0'
p27
I65008
sS'N28754|3626|10.0'
p28
I4815
sS'N28518|58044|10.0'
p29
I18055
sS'N28723|49633|10.0'
p30
I991968
sS'N29091|38934|10.0'
p31
I526074
sS'N28567|58808|10.0'
p32
I624786
sS'N28988|77420|10.0'
p33
I293738
sS'N28570|25889|10.0'
p34
I281698
sS'N28373|15839|10.0'
p35
I1084660
sS'N28974|41471|10.0'
p36
I970298
sS'N28704|55162|10.0'
p37
I989560
sS'N28848|71498|10.0'
p38
I716276
sS'N28674|82304|10.0'
p39
I858332
sS'N28432|25591|10.0'
p40
I882410
sS'N28404|8184|10.0'
p41
I540521
sS'N28241|21278|10.0'
p42
I315406
sS'N28324|80926|10.0'
p43
I149274
sS'N29008|13324|10.0'
p44
I663303
sS'N28426|74684|10.0'
p45
I408104
sS'N29068|31200|10.0'
p46
I851108
sS'N28258|6108|10.0'
p47
I587470
sS'N28266|6988|10.0'
p48
I585063
sS'N28229|8280|10.0'
p49
I57786
sS'N28366|69494|10.0'
p50
I352730
sS'N28900|8566|10.0'
p51
I1088271
sS'N28360|44648|10.0'
p52
I1008821
sS'N28647|83074|10.0'
p53
I1055767
sS'N28740|7648|10.0'
p54
I421347
sS'N28620|36892|10.0'
p55
I684972
sS'N29129|70202|10.0'
p56
I122790
sS'N29010|26650|10.0'
p57
I1029283
sS'N29014|61900|10.0'
p58
I269658
sS'N28281|36128|10.0'
p59
I941402
sS'N28323|60372|10.0'
p60
I390046
sS'N29150|78822|10.0'
p61
I1131606
sS'N28430|60611|10.0'
p62
I251602
sS'N28708|15852|10.0'
p63
I462274
sS'N29088|79935|10.0'
p64
I722296
sS'N29007|99272|10.0'
p65
I1083456
sS'N28764|42217|10.0'
p66
I973910
sS'N29112|9746|10.0'
p67
I542928
sS'N28768|79482|10.0'
p68
I56582
sS'N28577|49815|10.0'
p69
I60193
sS'N28197|10676|10.0'
p70
I231138
sS'N28968|63749|10.0'
p71
I701828
sS'N28389|27375|10.0'
p72
I339486
sS'N28433|79238|10.0'
p73
I1037711
sS'N28841|84914|10.0'
p74
I475516
sS'N28680|19587|10.0'
p75
I479124
sS'N28669|16125|10.0'
p76
I1203
sS'N29082|57190|10.0'
p77
I810176
sS'N28863|43478|10.0'
p78
I439404
sS'N28370|76626|10.0'
p79
I682564
sS'N28382|84437|10.0'
p80
I695808
sS'N28757|35715|10.0'
p81
I1059379
sS'N28858|98670|10.0'
p82
I564596
sS'N28818|2884|10.0'
p83
I54175
sS'N28617|50299|10.0'
p84
I759614
sS'N28800|91841|10.0'
p85
I834253
sS'N28940|8181|10.0'
p86
I255214
sS'N28280|71259|10.0'
p87
I749984
sS'N28420|27285|10.0'
p88
I730722
sS'N28224|14852|10.0'
p89
I978725
sS'N28563|11472|10.0'
p90
I262437
sS'N28309|44643|10.0'
p91
I77046
sS'N28655|57183|10.0'
p92
I370785
sS'N28607|70292|10.0'
p93
I1114752
sS'N28352|28882|10.0'
p94
I63804
sS'N28782|11912|10.0'
p95
I545335
sS'N28391|85299|10.0'
p96
I1054563
sS'N28549|17945|10.0'
p97
I321426
sS'N28908|6093|10.0'
p98
I833050
sS'N29074|30752|10.0'
p99
I760818
sS'N28784|54628|10.0'
p100
I640431
sS'N28705|18042|10.0'
p101
I80656
sS'N28523|37095|10.0'
p102
I296146
sS'N28179|4208|10.0'
p103
I539318
sS'N28501|97328|10.0'
p104
I1007617
sS'N28371|39168|10.0'
p105
I411716
sS'N29070|74821|10.0'
p106
I747576
sS'N28971|26909|10.0'
p107
I807768
sS'N28274|79542|10.0'
p108
I346710
sS'N28515|6268|10.0'
p109
I178169
sS'N28463|49493|10.0'
p110
I670527
sS'N28683|98339|10.0'
p111
I592283
sS'N28796|3352|10.0'
p112
I308183
sS'N28601|15306|10.0'
p113
I1065398
sS'N28295|58504|10.0'
p114
I192616
sS'N28813|301|10.0'
p115
I1041323
sS'N28170|42329|10.0'
p116
I536910
sS'N29077|5753|10.0'
p117
I168538
sS'N28419|31315|10.0'
p118
I291330
sS'N28439|60249|10.0'
p119
I1132810
sS'N29108|92049|10.0'
p120
I45747
sS'N29137|23955|10.0'
p121
I623582
sS'N29085|83905|10.0'
p122
I889634
sS'N28939|236|10.0'
p123
I445423
sS'N28188|53725|10.0'
p124
I245583
sS'N28452|92723|10.0'
p125
I244379
sS'N28870|50334|10.0'
p126
I464682
sS'N28399|70182|10.0'
p127
I453849
sS'N28842|88926|10.0'
p128
I6018
sS'N29084|53632|10.0'
p129
I215488
sS'N28644|34671|10.0'
p130
I964278
sS'N28302|55393|10.0'
p131
I205856
sS'N28762|2607|10.0'
p132
I866760
sS'N28861|37052|10.0'
p133
I1146052
sS'N29011|36722|10.0'
p134
I2407
sS'N29048|43090|10.0'
p135
I482736
sS'N28659|60464|10.0'
p136
I398474
sS'N28746|9479|10.0'
p137
I1189389
sS'N28597|347|10.0'
p138
I78250
sS'N29072|37212|10.0'
p139
I1156886
sS'N28637|37148|10.0'
p140
I471904
sS'N28781|57001|10.0'
p141
I698216
sS'N28345|54935|10.0'
p142
I51767
sS'N29046|67530|10.0'
p143
I154090
sS'N28234|64677|10.0'
p144
I768041
sS'N28537|46823|10.0'
p145
I948626
sS'N28214|6707|10.0'
p146
I616359
sS'N28390|60183|10.0'
p147
I875187
sS'N28825|407|10.0'
p148
I589877
sS'N29153|37957|10.0'
p149
I581451
sS'N28156|28535|10.0'
p150
I494776
sS'N28894|88796|10.0'
p151
I928158
sS'N28758|38144|10.0'
p152
I247990
sS'N28385|32174|10.0'
p153
I819806
sS'N28763|74841|10.0'
p154
I19259
sS'N28884|60785|10.0'
p155
I115566
sS'N28907|15030|10.0'
p156
I837865
sS'N28539|87867|10.0'
p157
I547743
sS'N28504|38933|10.0'
p158
I771653
sS'N28767|27365|10.0'
p159
I1193000
sS'N28316|1864|10.0'
p160
I904082
sS'N28545|25246|10.0'
p161
I816194
sS'N28650|13962|10.0'
p162
I1162905
sS'N28995|85404|10.0'
p163
I361156
sS'N28660|90876|10.0'
p164
I522463
sS'N28624|22027|10.0'
p165
I434588
sS'N28599|17687|10.0'
p166
I675342
sS'N28339|76745|10.0'
p167
I504406
sS'N28172|46287|10.0'
p168
I380416
sS'N28695|939|10.0'
p169
I751188
sS'N28579|26710|10.0'
p170
I764430
sS'N28821|13691|10.0'
p171
I848700
sS'N28724|6572|10.0'
p172
I0
sS'N28308|48474|10.0'
p173
I1043729
sS'N28268|8204|10.0'
p174
I381620
sS'N29032|33464|10.0'
p175
I949830
sS'N28566|54533|10.0'
p176
I994376
sS'N29078|82776|10.0'
p177
I582655
sS'N29071|27865|10.0'
p178
I818602
sS'N28964|37937|10.0'
p179
I648857
sS'N28204|83086|10.0'
p180
I294942
sS'N28287|32925|10.0'
p181
I739149
sS'N28952|80504|10.0'
p182
I694604
sS'N28402|85595|10.0'
p183
I530890
sS'N28213|32597|10.0'
p184
I463478
sS'N28477|9951|10.0'
p185
I1154480
sS'N28791|686|10.0'
p186
I917324
sS'N29102|98442|10.0'
p187
I778875
sS'N28276|32884|10.0'
p188
I644042
sS'N28702|65994|10.0'
p189
I1034099
sS'N28182|19248|10.0'
p190
I706644
sS'N28350|42874|10.0'
p191
I668119
sS'N28710|109|10.0'
p192
I1078642
sS'N28228|2077|10.0'
p193
I787302
sS'N28787|39653|10.0'
p194
I24075
sS'N28904|62039|10.0'
p195
I860740
sS'N28925|26266|10.0'
p196
I152886
sS'N28909|3592|10.0'
p197
I1026877
sS'N29125|31592|10.0'
p198
I748780
sS'N28483|28755|10.0'
p199
I840273
sS'N28481|43812|10.0'
p200
I693400
sS'N28285|57|10.0'
p201
I299758
sS'N28871|22600|10.0'
p202
I576635
sS'N28943|62421|10.0'
p203
I1044933
sS'N28641|64773|10.0'
p204
I988356
sS'N28393|93505|10.0'
p205
I31299
sS'N28819|84905|10.0'
p206
I709052
sS'N29089|40987|10.0'
p207
I403289
sS'N28745|84658|10.0'
p208
I225120
sS'N28944|78565|10.0'
p209
I1197816
sS'N28416|75437|10.0'
p210
I1052155
sS'N28559|39971|10.0'
p211
I898062
sS'N28806|85682|10.0'
p212
I622378
sS'N28448|17168|10.0'
p213
I28891
sS'N28334|58430|10.0'
p214
I492368
sS'N28903|49327|10.0'
p215
I285310
sS'N29110|32261|10.0'
p216
I523667
sS'N28557|30218|10.0'
p217
I855924
sS'N28357|43620|10.0'
p218
I634413
sS'N28612|65790|10.0'
p219
I310590
sS'N28461|79705|10.0'
p220
I240768
sS'N28845|5413|10.0'
p221
I99916
sS'N29019|53404|10.0'
p222
I202245
sS'N28750|2406|10.0'
p223
I1120772
sS'N28798|317|10.0'
p224
I226324
sS'N29119|91135|10.0'
p225
I861944
sS'N28267|98259|10.0'
p226
I1173738
sS'N28498|40815|10.0'
p227
I286514
sS'N28157|2352|10.0'
p228
I455053
sS'N28685|35135|10.0'
p229
I1070214
sS'N29121|46086|10.0'
p230
I1161701
sS'N28823|22165|10.0'
p231
I957054
sS'N29148|73730|10.0'
p232
I811380
sS'N28255|45762|10.0'
p233
I535706
sS'N28171|39066|10.0'
p234
I110751
sS'N29021|63586|10.0'
p235
I105935
sS'N28581|26558|10.0'
p236
I1019655
sS'N28479|20994|10.0'
p237
I444219
sS'N28759|79375|10.0'
p238
I213080
sS'N29026|26921|10.0'
p239
I699420
sS'N29062|14140|10.0'
p240
I234749
sS'N29115|10521|10.0'
p241
I736742
sS'N29130|59115|10.0'
p242
I1016043
sS'N28996|40152|10.0'
p243
I189004
sS'N28832|49357|10.0'
p244
I704236
sS'N29124|44507|10.0'
p245
I101119
sS'N28972|31688|10.0'
p246
I385231
sS'N28288|38583|10.0'
p247
I1056971
sS'N28576|49748|10.0'
p248
I993172
sS'N28992|256|10.0'
p249
I678954
sS'N28499|27902|10.0'
p250
I1144848
sS'N28627|90851|10.0'
p251
I279290
sS'N28342|68493|10.0'
p252
I665711
sS'N28610|35128|10.0'
p253
I756002
sS'N28793|633|10.0'
p254
I16853
sS'N28990|20788|10.0'
p255
I1188185
sS'N29080|15461|10.0'
p256
I1079844
sS'N28476|18790|10.0'
p257
I548947
sS'N28835|18753|10.0'
p258
I976317
sS'N29059|97592|10.0'
p259
I711460
sS'N29050|40143|10.0'
p260
I641635
sS'N28966|19003|10.0'
p261
I735538
sS'N28969|21590|10.0'
p262
I960666
sS'N28645|44518|10.0'
p263
I930566
sS'N29001|31262|10.0'
p264
I144461
sS'N28240|80978|10.0'
p265
I22871
sS'N28933|39376|10.0'
p266
I529686
sS'N29031|60968|10.0'
p267
I257621
sS'N29055|44283|10.0'
p268
I1020859
sS'N29073|4977|10.0'
p269
I652468
sS'N28589|84179|10.0'
p270
I196225
sS'N28828|974|10.0'
p271
I625990
sS'N28238|71335|10.0'
p272
I686176
sS'N28844|61890|10.0'
p273
I718684
sS'N28648|28245|10.0'
p274
I369581
sS'N28236|56247|10.0'
p275
I883614
sS'N28892|71768|10.0'
p276
I409308
sS'N28314|78268|10.0'
p277
I364767
sS'N28957|42096|10.0'
p278
I839069
sS'N28666|55931|10.0'
p279
I907692
sS'N28639|4786|10.0'
p280
I766838
sS'N28249|35934|10.0'
p281
I417735
sS'N28466|50952|10.0'
p282
I1099106
sS'N28509|47598|10.0'
p283
I932974
sS'N28893|89322|10.0'
p284
I111955
sS'N28199|7596|10.0'
p285
I363564
sS'N28351|63552|10.0'
p286
I52971
sS'N28575|78432|10.0'
p287
I34911
sS'N28877|67161|10.0'
p288
I349118
sS'N28636|87287|10.0'
p289
I229934
sS'N29142|85964|10.0'
p290
I119178
sS'N29111|1026|10.0'
p291
I1002802
sS'N28989|59872|10.0'
p292
I1130402
sS'N28809|76187|10.0'
p293
I845088
sS'N28340|68311|10.0'
p294
I947422
sS'N28174|92468|10.0'
p295
I450237
sS'N28902|70316|10.0'
p296
I607932
sS'N28626|17993|10.0'
p297
I85472
sS'N28864|31490|10.0'
p298
I560984
sS'N29118|10868|10.0'
p299
I1202632
sS'N28901|81284|10.0'
p300
I863148
sS'N28734|85218|10.0'
p301
I191412
sS'N28445|15662|10.0'
p302
I876391
sS'N28998|8298|10.0'
p303
I642839
sS'N28564|93318|10.0'
p304
I254010
sS'N28967|3083|10.0'
p305
I610340
sS'N28437|86070|10.0'
p306
I1038915
sS'N28714|10540|10.0'
p307
I140849
sS'N29090|22716|10.0'
p308
I627192
sS'N28760|82228|10.0'
p309
I867963
sS'N29052|26648|10.0'
p310
I509222
sS'N28173|88549|10.0'
p311
I1035303
sS'N28310|27746|10.0'
p312
I219100
sS'N28615|93955|10.0'
p313
I216692
sS'N29087|75974|10.0'
p314
I331058
sS'N29113|14097|10.0'
p315
I325038
sS'N28470|20303|10.0'
p316
I945014
sS'N28428|27053|10.0'
p317
I1201428
sS'N28771|58320|10.0'
p318
I533298
sS'N29131|30961|10.0'
p319
I765634
sS'N28994|48915|10.0'
p320
I284106
sS'N28920|96808|10.0'
p321
I447829
sS'N28927|35085|10.0'
p322
I774061
sS'N29136|36213|10.0'
p323
I102323
sS'N28475|69057|10.0'
p324
I1129198
sS'N28424|35097|10.0'
p325
I929362
sS'N29099|78296|10.0'
p326
I852312
sS'N28665|15298|10.0'
p327
I163722
sS'N28878|20109|10.0'
p328
I1111143
sS'N29033|304|10.0'
p329
I1134014
sS'N28928|95434|10.0'
p330
I26483
sS'N28395|87197|10.0'
p331
I669323
sS'N28785|34953|10.0'
p332
I207060
sS'N28646|54657|10.0'
p333
I345506
sS'N28917|19483|10.0'
p334
I719888
sS'N28417|37153|10.0'
p335
I824622
sS'N28765|89214|10.0'
p336
I717480
sS'N28562|78557|10.0'
p337
I495980
sS'N28733|27537|10.0'
p338
I305775
sS'N28911|54491|10.0'
p339
I473108
sS'N28468|75823|10.0'
p340
I511629
sS'N28547|76271|10.0'
p341
I1091882
sS'N28727|85988|10.0'
p342
I322630
sS'N28187|54805|10.0'
p343
I300959
sS'N28331|52687|10.0'
p344
I121586
sS'N29022|59917|10.0'
p345
I217896
sS'N28603|41540|10.0'
p346
I199837
sS'N28195|44961|10.0'
p347
I794525
sS'N28719|30392|10.0'
p348
I1174942
sS'N28162|84146|10.0'
p349
I869167
sS'N29101|21226|10.0'
p350
I977521
sS'N28359|43577|10.0'
p351
I676546
sS'N28227|72938|10.0'
p352
I1137624
sS'N28914|2943|10.0'
p353
I635617
sS'N28159|66602|10.0'
p354
I12038
sS'N28169|17585|10.0'
p355
I996782
sS'N28264|20436|10.0'
p356
I489960
sS'N28282|35552|10.0'
p357
I132421
sS'N28779|81416|10.0'
p358
I69822
sS'N28587|94445|10.0'
p359
I700624
sS'N28875|5201|10.0'
p360
I233546
sS'N28519|67240|10.0'
p361
I906488
sS'N28703|11978|10.0'
p362
I688584
sS'N28826|46119|10.0'
p363
I887226
sS'N29023|46202|10.0'
p364
I603117
sS'N28671|44525|10.0'
p365
I660895
sS'N28363|70039|10.0'
p366
I953442
sS'N28185|97506|10.0'
p367
I822214
sS'N28355|79416|10.0'
p368
I1179757
sS'N28512|79660|10.0'
p369
I710256
sS'N28522|74871|10.0'
p370
I503202
sS'N28368|61801|10.0'
p371
I243175
sS'N28503|72203|10.0'
p372
I1136420
sS'N28245|33087|10.0'
p373
I935382
sS'N28673|99612|10.0'
p374
I116770
sS'N28194|51227|10.0'
p375
I362360
sS'N28584|25882|10.0'
p376
I1050951
sS'N28797|49267|10.0'
p377
I943810
sS'N28480|65840|10.0'
p378
I86676
sS'N28326|60425|10.0'
p379
I981132
sS'N28514|12443|10.0'
p380
I7222
sS'N28866|27349|10.0'
p381
I89084
sS'N29024|97107|10.0'
p382
I290126
sS'N29135|57511|10.0'
p383
I373193
sS'N28713|6157|10.0'
p384
I1155683
sS'N29037|98083|10.0'
p385
I143257
sS'N28778|12639|10.0'
p386
I1069010
sS'N28540|56227|10.0'
p387
I541724
sS'N28664|77208|10.0'
p388
I864352
sS'N28167|22810|10.0'
p389
I971502
sS'N28450|59645|10.0'
p390
I187800
sS'N28947|10740|10.0'
p391
I221508
sS'N28203|6012|10.0'
p392
I1024470
sS'N28313|12653|10.0'
p393
I913712
sS'N28720|90214|10.0'
p394
I1164109
sS'N28814|68481|10.0'
p395
I672934
sS'N28735|74083|10.0'
p396
I734334
sS'N28780|65521|10.0'
p397
I895654
sS'N28217|52328|10.0'
p398
I274474
sS'N28492|74981|10.0'
p399
I969094
sS'N28812|78146|10.0'
p400
I727110
sS'N28377|19803|10.0'
p401
I901674
sS'N28942|3296|10.0'
p402
I1046137
sS'N28618|25121|10.0'
p403
I273270
sS'N28443|13349|10.0'
p404
I427365
sS'N28259|74166|10.0'
p405
I508018
sS'N28776|40435|10.0'
p406
I1118364
sS'N28986|27713|10.0'
p407
I430977
sS'N28254|28852|10.0'
p408
I940198
sS'N29123|90725|10.0'
p409
I814990
sS'N28743|37928|10.0'
p410
I1200224
sS'N28690|17526|10.0'
p411
I435792
sS'N29015|33888|10.0'
p412
I405697
sS'N28675|36822|10.0'
p413
I378008
sS'N28422|43803|10.0'
p414
I743964
sS'N28859|42044|10.0'
p415
I1124383
sS'N28766|83013|10.0'
p416
I538114
sS'N28694|2871|10.0'
p417
I499592
sS'N28315|7008|10.0'
p418
I841477
sS'N28496|191|10.0'
p419
I1108737
sS'N28985|21359|10.0'
p420
I958258
sS'N28237|14591|10.0'
p421
I1138828
sS'N28701|95682|10.0'
p422
I208264
sS'N28183|29138|10.0'
p423
I600709
sS'N28792|23946|10.0'
p424
I923342
sS'N28347|7101|10.0'
p425
I400882
sS'N28344|87483|10.0'
p426
I397270
sS'N28212|15529|10.0'
p427
I393658
sS'N28327|18169|10.0'
p428
I911304
sS'N28868|45032|10.0'
p429
I176965
sS'N28593|40949|10.0'
p430
I692196
sS'N28353|21016|10.0'
p431
I972706
sS'N28374|137|10.0'
p432
I995580
sS'N28605|67269|10.0'
p433
I621174
sS'N28554|51927|10.0'
p434
I552559
sS'N29117|50150|10.0'
p435
I645246
sS'N28502|54060|10.0'
p436
I220304
sS'N28158|13932|10.0'
p437
I650061
sS'N28517|73969|10.0'
p438
I890838
sS'N28265|38225|10.0'
p439
I1167720
sS'N29093|75297|10.0'
p440
I784894
sS'N28369|90041|10.0'
p441
I287718
sS'N28211|40127|10.0'
p442
I249194
sS'N28367|18778|10.0'
p443
I351526
sS'N29004|20500|10.0'
p444
I746372
sS'N28652|5458|10.0'
p445
I556169
sS'N29149|49622|10.0'
p446
I376804
sS'N28449|43839|10.0'
p447
I1060583
sS'N28253|14257|10.0'
p448
I27687
sS'N28623|25080|10.0'
p449
I703032
sS'N28742|84285|10.0'
p450
I396066
sS'N29100|14101|10.0'
p451
I91490
sS'N28681|40467|10.0'
p452
I680156
sS'N28949|40548|10.0'
p453
I1186981
sS'N29063|53503|10.0'
p454
I328650
sS'N28175|76833|10.0'
p455
I520056
sS'N28436|37184|10.0'
p456
I934178
sS'N28836|34751|10.0'
p457
I752390
sS'N28291|23577|10.0'
p458
I762022
sS'N28817|16787|10.0'
p459
I1172534
sS'N28560|4440|10.0'
p460
I1028080
sS'N28506|83817|10.0'
p461
I334670
sS'N28619|3744|10.0'
p462
I1064195
sS'N28226|61719|10.0'
p463
I573023
sS'N28333|44776|10.0'
p464
I831846
sS'N29145|41886|10.0'
p465
I158906
sS'N28365|37056|10.0'
p466
I926954
sS'N28910|10850|10.0'
p467
I83064
sS'N28668|35261|10.0'
p468
I104731
sS'N28856|48935|10.0'
p469
I1196612
sS'N28728|1552|10.0'
p470
I737946
sS'N28491|86989|10.0'
p471
I1100310
sS'N28525|74374|10.0'
p472
I1165313
sS'N28737|24407|10.0'
p473
I534502
sS'N28358|1576|10.0'
p474
I1087068
sS'N28678|29020|10.0'
p475
I30095
sS'N29134|32796|10.0'
p476
I842680
sS'N28569|12233|10.0'
p477
I1141236
sS'N28178|36566|10.0'
p478
I68618
sS'N28976|33554|10.0'
p479
I1177350
sS'N28585|40638|10.0'
p480
I1143644
sS'N28414|32688|10.0'
p481
I297350
sS'N28205|1942|10.0'
p482
I1022063
sS'N28684|73989|10.0'
p483
I182984
sS'N28707|4303|10.0'
p484
I267252
sS'N28528|44561|10.0'
p485
I316610
sS'N28409|49568|10.0'
p486
I1171330
sS'N28572|38665|10.0'
p487
I10834
sS'N29147|47135|10.0'
p488
I1042525
sS'N28672|93415|10.0'
p489
I238360
sS'N28558|84912|10.0'
p490
I952238
sS'N28231|40195|10.0'
p491
I96306
sS'N28219|812|10.0'
p492
I367175
sS'N28915|41914|10.0'
p493
I1142440
sS'N28632|90834|10.0'
p494
I781282
sS'N28700|19520|10.0'
p495
I326242
sS'N28561|31507|10.0'
p496
I1184573
sS'N28936|53772|10.0'
p497
I302163
sS'N29017|72458|10.0'
p498
I1071418
sS'N28166|73902|10.0'
p499
I1103922
sS'N28376|84280|10.0'
p500
I501998
sS'N29018|35939|10.0'
p501
I114362
sS'N28431|93267|10.0'
p502
I846292
sS'N28896|3447|10.0'
p503
I1125587
sS'N28427|69728|10.0'
p504
I1023266
sS'N29132|47541|10.0'
p505
I95102
sS'N28706|718|10.0'
p506
I465886
sS'N28938|25693|10.0'
p507
I1089474
sS'N29047|15115|10.0'
p508
I84268
sS'N28820|2940|10.0'
p509
I553763
sS'N28586|16777|10.0'
p510
I359952
sS'N28741|11909|10.0'
p511
I127606
sS'N28453|15178|10.0'
p512
I314202
sS'N28527|81537|10.0'
p513
I782486
sS'N28192|82249|10.0'
p514
I723500
sS'N28410|36106|10.0'
p515
I847496
sS'N29025|88343|10.0'
p516
I264844
sS'N28991|97520|10.0'
p517
I344302
sS'N28752|558|10.0'
p518
I90288
sS'N28729|30612|10.0'
p519
I628396
sS'N28465|89042|10.0'
p520
I1048543
sS'N28455|36426|10.0'
p521
I481532
sS'N28880|74317|10.0'
p522
I332262
sS'N29144|32556|10.0'
p523
I480328
sS'N28335|42776|10.0'
p524
I161314
sS'N28421|20280|10.0'
p525
I1126790
sS'N28789|53233|10.0'
p526
I902878
sS'N28630|78005|10.0'
p527
I770449
sS'N28284|37883|10.0'
p528
I36115
sS'N28225|34497|10.0'
p529
I569411
sS'N28456|45456|10.0'
p530
I3611
sS'N28718|62107|10.0'
p531
I488756
sS'N28596|84775|10.0'
p532
I1095494
sS'N28642|6698|10.0'
p533
I1166517
sS'N28330|93274|10.0'
p534
I946218
sS'N28362|69059|10.0'
p535
I591079
sS'N28932|18555|10.0'
p536
I1067806
sS'N28656|46692|10.0'
p537
I173353
sS'N29079|18946|10.0'
p538
I740353
sS'N28843|45937|10.0'
p539
I404493
sS'N28425|15658|10.0'
p540
I683768
sS'N28394|52526|10.0'
p541
I559780
sS'N28300|76436|10.0'
p542
I558576
sS'N28451|83266|10.0'
p543
I258825
sS'N28386|44203|10.0'
p544
I340690
sS'N28329|47992|10.0'
p545
I618766
sS'N28341|11800|10.0'
p546
I151682
sS'N28272|31244|10.0'
p547
I580247
sS'N28190|31264|10.0'
p548
I1005209
sS'N28271|10640|10.0'
p549
I71026
sS'N28542|34064|10.0'
p550
I1176146
sS'N28840|94748|10.0'
p551
I728314
sS'N28250|30876|10.0'
p552
I865556
sS'N29065|69645|10.0'
p553
I139645
sS'N28210|98185|10.0'
p554
I185392
sS'N28761|65891|10.0'
p555
I1085864
sS'N28534|96005|10.0'
p556
I823418
sS'N28890|68837|10.0'
p557
I571819
sS'N28438|63596|10.0'
p558
I961870
sS'N28544|85420|10.0'
p559
I276882
sS'N28277|81712|10.0'
p560
I292534
sS'N28415|35060|10.0'
p561
I422550
sS'N28816|5974|10.0'
p562
I416532
sS'N28354|63706|10.0'
p563
I687380
sS'N28954|96075|10.0'
p564
I633209
sS'N28164|16144|10.0'
p565
I754798
sS'N28977|20199|10.0'
p566
I658487
sS'N28722|29810|10.0'
p567
I55378
sS'N28536|112|10.0'
p568
I1168924
sS'N28716|15408|10.0'
p569
I371989
sS'N28510|2230|10.0'
p570
I554966
sS'N28905|8829|10.0'
p571
I97510
sS'N28294|69|10.0'
p572
I146869
sS'N28535|26805|10.0'
p573
I963074
sS'N28423|39199|10.0'
p574
I878799
sS'N28516|7030|10.0'
p575
I1158090
sS'N28413|15462|10.0'
p576
I966686
sS'N28960|15541|10.0'
p577
I505610
sS'N28802|3327|10.0'
p578
I1014840
sS'N29103|32982|10.0'
p579
I805360
sS'N28755|64473|10.0'
p580
I399678
sS'N28384|27704|10.0'
p581
I630802
sS'N28221|45981|10.0'
p582
I467088
sS'N28298|67483|10.0'
p583
I343098
sS'N28783|26494|10.0'
p584
I677750
sS'N28786|52914|10.0'
p585
I742760
sS'N28602|83697|10.0'
p586
I900470
sS'N28472|9832|10.0'
p587
I67415
sS'N28532|77015|10.0'
p588
I252806
sS'N28531|72875|10.0'
p589
I954646
sS'N28611|3737|10.0'
p590
I424958
sS'N28473|19758|10.0'
p591
I990764
sS'N28270|42618|10.0'
p592
I379212
sS'N28747|29093|10.0'
p593
I997986
sS'N28381|33875|10.0'
p594
I1097902
sS'N29028|65361|10.0'
p595
I1101514
sS'N29002|81722|10.0'
p596
I689788
sS'N29020|56339|10.0'
p597
I438200
sS'N28838|23903|10.0'
p598
I546539
sS'N28524|54740|10.0'
p599
I46951
sS'N28550|87087|10.0'
p600
I211876
sS'N29066|16782|10.0'
p601
I162518
sS'N29122|57118|10.0'
p602
I1004005
sS'N28899|34868|10.0'
p603
I329854
sS'N28834|12766|10.0'
p604
I423754
sS'N29075|22160|10.0'
p605
I586266
sS'N29040|64514|10.0'
p606
I195021
sS'N28631|52242|10.0'
p607
I1072622
sS'N28913|45717|10.0'
p608
I925750
sS'N28622|14937|10.0'
p609
I1123179
sS'N28795|39669|10.0'
p610
I470700
sS'N28418|73018|10.0'
p611
I227526
sS'N28887|62150|10.0'
p612
I908896
sS'N29107|73472|10.0'
p613
I1082252
sS'N28252|63582|10.0'
p614
I1061787
sS'N28881|47589|10.0'
p615
I712664
sS'N29043|44674|10.0'
p616
I821010
sS'N28372|11854|10.0'
p617
I951034
sS'N28505|77341|10.0'
p618
I280494
sS'N28176|8512|10.0'
p619
I433385
sS'N28937|8642|10.0'
p620
I604321
sS'N28790|23894|10.0'
p621
I306979
sS'N28860|59552|10.0'
p622
I919730
sS'N28392|44239|10.0'
p623
I615155
sS'N28808|52695|10.0'
p624
I619970
sS'N29056|19965|10.0'
p625
I312998
sS'N28256|85509|10.0'
p626
I39727
sS'N28511|84271|10.0'
p627
I8426
sS'N28555|79571|10.0'
p628
I266048
sS'N29120|30364|10.0'
p629
I872779
sS'N28459|65492|10.0'
p630
I333466
sS'N28824|35815|10.0'
p631
I877595
sS'N28691|26671|10.0'
p632
I1159293
sS'N28233|35183|10.0'
p633
I707848
sS'N28592|37890|10.0'
p634
I388842
sS'N28209|50219|10.0'
p635
I772857
sS'N29143|12793|10.0'
p636
I145665
sS'N28709|63045|10.0'
p637
I984744
sS'N28736|70868|10.0'
p638
I786098
sS'N28654|44873|10.0'
p639
I209468
sS'N28538|9956|10.0'
p640
I798137
sS'N28578|2130|10.0'
p641
I241972
sS'N29083|3231|10.0'
p642
I15650
sS'N28732|50858|10.0'
p643
I74638
sS'N29154|33129|10.0'
p644
I646450
sS'N28407|47725|10.0'
p645
I1170126
sS'N28571|67613|10.0'
p646
I611543
sS'N28698|30711|10.0'
p647
I160110
sS'N28460|49203|10.0'
p648
I574227
sS'N28934|25247|10.0'
p649
I857128
sS'N28799|6044|10.0'
p650
I647654
sS'N28721|98178|10.0'
p651
I916120
sS'N28486|91368|10.0'
p652
I368377
sS'N28653|72676|10.0'
p653
I120382
sS'N28852|35336|10.0'
p654
I1094290
sS'N29126|50206|10.0'
p655
I617562
sS'N28979|22476|10.0'
p656
I1150868
sS'N28304|45036|10.0'
p657
I544131
sS'N28494|884|10.0'
p658
I356342
sS'N29061|77649|10.0'
p659
I184188
sS'N28590|22823|10.0'
p660
I73434
sS'N28435|61459|10.0'
p661
I180576
sS'N28956|92229|10.0'
p662
I965482
sS'N28616|214|10.0'
p663
I725908
sS'N28625|74324|10.0'
p664
I150478
sS'N29042|47128|10.0'
p665
I808972
sS'N28303|27140|10.0'
p666
I49359
sS'N28810|85572|10.0'
p667
I239564
sS'N28200|4841|10.0'
p668
I500795
sS'N28769|46715|10.0'
p669
I81860
sS'N29114|54719|10.0'
p670
I415328
sS'N28247|92255|10.0'
p671
I288922
sS'N28945|77288|10.0'
p672
I567003
sS'N28921|37587|10.0'
p673
I441811
sS'N28565|85620|10.0'
p674
I799340
sS'N28474|5032|10.0'
p675
I98713
sS'N28546|47784|10.0'
p676
I1075030
sS'N28343|38205|10.0'
p677
I1140032
sS'N28273|89809|10.0'
p678
I382823
sS'N29081|75238|10.0'
p679
I457460
sS'N28168|10059|10.0'
p680
I528482
sS'N28651|2801|10.0'
p681
I204653
sS'N28529|51034|10.0'
p682
I938994
sS'N28831|70254|10.0'
p683
I795729
sS'N28336|10376|10.0'
p684
I775265
sS'N28493|33463|10.0'
p685
I384027
sS'N28959|12172|10.0'
p686
I1031691
sS'N28830|84053|10.0'
p687
I873983
sS'N29098|13955|10.0'
p688
I801748
sS'N28541|5972|10.0'
p689
I1013637
sS'N28165|48586|10.0'
p690
I1109939
sS'N28246|73757|10.0'
p691
I1017247
sS'N28278|77255|10.0'
p692
I753594
sS'N28301|34363|10.0'
p693
I1058175
sS'N28594|48825|10.0'
p694
I937790
sS'N29009|13347|10.0'
p695
I25279
sS'N28293|20374|10.0'
p696
I117974
sS'N28403|34277|10.0'
p697
I142053
sS'N28686|16541|10.0'
p698
I40931
sS'N28263|7846|10.0'
p699
I524871
sS'N28508|351|10.0'
p700
I777673
sS'N28485|33950|10.0'
p701
I391250
sS'N29038|83595|10.0'
p702
I402085
sS'N29116|76772|10.0'
p703
I148070
sS'N29109|97792|10.0'
p704
I562188
sS'N28488|21607|10.0'
p705
I527278
sS'N29151|47882|10.0'
p706
I335874
sS'N28543|90644|10.0'
p707
I557372
sS'N28640|16845|10.0'
p708
I353934
sS'N29044|38712|10.0'
p709
I690992
sS'N28568|74416|10.0'
p710
I506814
sS'N29058|1444|10.0'
p711
I636820
sS'N29060|84697|10.0'
p712
I72230
sS'N28484|64772|10.0'
p713
I341894
sS'N28696|18894|10.0'
p714
I487552
sS'N28457|92868|10.0'
p715
I518852
sS'N29105|99221|10.0'
p716
I214284
sS'N28400|10477|10.0'
p717
I1040119
sS'N28973|4085|10.0'
p718
I113159
sS'N29003|37490|10.0'
p719
I426161
sS'N28888|99061|10.0'
p720
I769245
sS'N28794|62104|10.0'
p721
I261233
sS'N28922|32691|10.0'
p722
I662099
sS'N28738|65780|10.0'
p723
I474312
sS'N28239|34775|10.0'
p724
I597098
sS'N28857|72746|10.0'
p725
I1036507
sS'N28184|25706|10.0'
p726
I123994
sS'N29141|11676|10.0'
p727
I203449
sS'N28279|78|10.0'
p728
I193820
sS'N28657|24323|10.0'
p729
I392454
sS'N29094|51887|10.0'
p730
I793321
sS'N28361|75119|10.0'
p731
I829438
sS'N28689|62305|10.0'
p732
I982336
sS'N28257|4799|10.0'
p733
I651265
sS'N29133|30991|10.0'
p734
I169741
sS'N28243|9845|10.0'
p735
I565800
sS'N28693|3441|10.0'
p736
I263641
sS'N29012|30063|10.0'
p737
I311794
sS'N28530|31061|10.0'
p738
I9630
sS'N28482|91569|10.0'
p739
I134829
sS'N28196|45484|10.0'
p740
I806564
sS'N28582|39063|10.0'
p741
I612747
sS'N28306|45914|10.0'
p742
I1073826
sS'N28201|54973|10.0'
p743
I197429
sS'N28984|63976|10.0'
p744
I485144
sS'N28286|3686|10.0'
p745
I459868
sS'N28725|21741|10.0'
p746
I1149664
sS'N28774|5418|10.0'
p747
I131218
sS'N28807|13013|10.0'
p748
I1077438
sS'N28223|1511|10.0'
p749
I406901
sS'N28614|25000|10.0'
p750
I899266
sS'N28951|52722|10.0'
p751
I486348
sS'N29035|3416|10.0'
p752
I598302
sS'N28346|4148|10.0'
p753
I246787
sS'N28411|60083|10.0'
p754
I1102718
sS'N28999|37215|10.0'
p755
I491164
sS'N29076|25711|10.0'
p756
I894450
sS'N28634|72690|10.0'
p757
I664507
sS'N29138|67368|10.0'
p758
I1106329
sS'N28320|17860|10.0'
p759
I350322
sS'N28895|3896|10.0'
p760
I440608
sS'N28997|87163|10.0'
p761
I896858
sS'N28717|10660|10.0'
p762
I493572
sS'N28364|97630|10.0'
p763
I1160497
sS'N28434|79447|10.0'
p764
I516444
sS'N29057|13328|10.0'
p765
I1081048
sS'N28521|61337|10.0'
p766
I931770
sS'N28886|37063|10.0'
p767
I138441
sS'N28387|23427|10.0'
p768
I792117
sS'N28180|53029|10.0'
p769
I920934
sS'N28186|63526|10.0'
p770
I783690
sS'N28275|44679|10.0'
p771
I44543
sS'N28513|48048|10.0'
p772
I804156
sS'N28406|47696|10.0'
p773
I828234
sS'N28916|98684|10.0'
p774
I1182165
sS'N29097|2113|10.0'
p775
I594691
sS'N28874|39316|10.0'
p776
I1053359
sS'N29006|50795|10.0'
p777
I256417
sS'N28712|74|10.0'
p778
I1113551
sS'N28321|1728|10.0'
p779
I386435
sS'N28931|71480|10.0'
p780
I1127994
sS'N28897|20281|10.0'
p781
I918526
sS'N28215|37433|10.0'
p782
I33707
sS'N28882|72509|10.0'
p783
I155294
sS'N28181|14963|10.0'
p784
I575431
sS'N28305|12507|10.0'
p785
I309386
sS'N28876|23610|10.0'
p786
I1119568
sS'N28912|49013|10.0'
p787
I32503
sS'N28177|85827|10.0'
p788
I843884
sS'N28982|38703|10.0'
p789
I987152
sS'N28208|1521|10.0'
p790
I1178554
sS'N28248|95603|10.0'
p791
I186596
sS'N28946|9541|10.0'
p792
I632006
sS'N28556|64924|10.0'
p793
I922138
sS'N28497|74526|10.0'
p794
I666915
sS'N29096|31999|10.0'
p795
I724704
sS'N28981|1098|10.0'
p796
I881207
sS'N28854|77952|10.0'
p797
I550151
sS'N28679|24637|10.0'
p798
I880003
sS'N28730|19514|10.0'
p799
I303367
sS'N28262|9869|10.0'
p800
I461071
sS'N28332|24565|10.0'
p801
I358748
sS'N28312|17545|10.0'
p802
I579043
sS'N29016|2729|10.0'
p803
I268455
sS'N28918|36786|10.0'
p804
I758410
sS'N28551|79514|10.0'
p805
I432181
sS'N28692|74913|10.0'
p806
I800544
sS'N28883|44002|10.0'
p807
I387638
sS'N29064|32112|10.0'
p808
I38523
sS'N28160|75760|10.0'
p809
I659691
sS'N28711|86948|10.0'
p810
I394862
sS'N28299|35186|10.0'
p811
I697012
sS'N28553|41177|10.0'
p812
I164926
sS'N28978|24210|10.0'
p813
I583859
sS'N28965|19518|10.0'
p814
I66211
sS'N28919|5881|10.0'
p815
I979929
sS'N29029|67421|10.0'
p816
I298554
sS'N28444|97694|10.0'
p817
I551355
sS'N29013|55642|10.0'
p818
I577839
sS'N28822|31639|10.0'
p819
I61397
sS'N28879|82208|10.0'
p820
I638023
sS'N28405|30310|10.0'
p821
I593487
sS'N28325|70494|10.0'
p822
I338282
sS'N29053|90047|10.0'
p823
I893246
sS'N28772|43565|10.0'
p824
I1194204
sS'N28697|40187|10.0'
p825
I222712
sS'N29095|2894|10.0'
p826
I1105126
sS'N28851|69634|10.0'
p827
I888430
sS'N29086|10859|10.0'
p828
I1018451
sS'N28296|2066|10.0'
p829
I780079
sS'N28500|2343|10.0'
p830
I741557
sS'N28189|64241|10.0'
p831
I715072
sS'N28846|91268|10.0'
p832
I1010025
sS'N28801|16134|10.0'
p833
I278086
sS'N28773|98640|10.0'
p834
I936586
sS'N28975|20424|10.0'
p835
I436996
sS'N28753|15491|10.0'
p836
I967890
sS'N28574|50882|10.0'
p837
I108343
sS'N28777|85746|10.0'
p838
I601913
sS'N28687|20128|10.0'
p839
I733130
sS'N29106|46625|10.0'
p840
I198633
sS'N28609|39795|10.0'
p841
I179372
sS'N28872|35469|10.0'
p842
I79452
sS'N28804|97333|10.0'
p843
I892042
sS'N28958|54185|10.0'
p844
I1195408
sS'N29045|9670|10.0'
p845
I671731
sS'N28829|90454|10.0'
p846
I983540
sS'N28520|48488|10.0'
p847
I790913
sS'N28955|19516|10.0'
p848
I174557
sS'N28670|28531|10.0'
p849
I1006413
sS'N28583|38432|10.0'
p850
I613951
sS'N29054|42261|10.0'
p851
I317814
sS'N28815|78498|10.0'
p852
I125198
sS'N29034|67459|10.0'
p853
I884818
sS'N28598|69276|10.0'
p854
I959462
sS'N29049|78792|10.0'
p855
I886022
sS'N28163|22515|10.0'
p856
I58989
sS'N28629|78234|10.0'
p857
I126402
sS'N29146|62915|10.0'
p858
I476720
sS'N28198|11623|10.0'
p859
I606728
sS'N28663|61292|10.0'
p860
I1093086
sS'N28490|19943|10.0'
p861
I827030
sS'N28811|23375|10.0'
p862
I375600
sS'N28318|91522|10.0'
p863
I443015
sS'N28775|23917|10.0'
p864
I849904
sS'N28379|94862|10.0'
p865
I451441
sS'N28923|17348|10.0'
p866
I812584
sS'N28595|46421|10.0'
p867
I830642
sS'N28827|4868|10.0'
p868
I905285
sS'N28383|9260|10.0'
p869
I374397
sS'N29092|25142|10.0'
p870
I1121975
sS'N28855|24428|10.0'
p871
I20463
sS'N28378|35802|10.0'
p872
I1001598
sS'N28526|16412|10.0'
p873
I1199020
sS'N28677|86340|10.0'
p874
I275678
sS'N28756|46349|10.0'
p875
I599505
sS'N28961|71930|10.0'
p876
I802952
sS'N28962|36686|10.0'
p877
I757206
sS'N28805|99264|10.0'
p878
I48155
sS'N28289|98537|10.0'
p879
I1000394
sS'N28993|20767|10.0'
p880
I75842
sS'N28380|17386|10.0'
p881
I414124
sS'N28297|5436|10.0'
p882
I510426
sS'N28667|32463|10.0'
p883
I1147256
sS'N28748|35801|10.0'
p884
I1191796
sS'N28290|50021|10.0'
p885
I107139
sS'N28699|79510|10.0'
p886
I498388
sS'N28867|16222|10.0'
p887
I469496
sS'N28950|92162|10.0'
p888
I365971
sS'N28676|43073|10.0'
p889
I1185777
sS'N28803|4912|10.0'
p890
I521260
sS'N28948|74328|10.0'
p891
I13242
sS'N28292|85358|10.0'
p892
I270862
sS'N28533|99340|10.0'
p893
I1025673
sS'N28441|35831|10.0'
p894
I1183369
sS'N28207|44641|10.0'
p895
I870371
sS'N28232|36023|10.0'
p896
I776469
sS'N28447|38083|10.0'
p897
I181780
sS'N28600|30035|10.0'
p898
I166130
sS'N28317|17890|10.0'
p899
I1107533
sS'N28220|20624|10.0'
p900
I304571
sS'N28235|54562|10.0'
p901
I999190
sS'N28983|52776|10.0'
p902
I745168
sS'N28349|813|10.0'
p903
I629600
sS'N28348|64756|10.0'
p904
I92694
sS'N29140|44278|10.0'
p905
I446625
sS'N28839|75758|10.0'
p906
I14446
sS'N28744|40739|10.0'
p907
I653671
sS'N28885|76696|10.0'
p908
I156498
sS'N28401|62567|10.0'
p909
I1180961
sS'N28853|18994|10.0'
p910
I955850
sS'N28454|89012|10.0'
p911
I588673
sS'N28337|97175|10.0'
p912
I355138
sS'N28770|79879|10.0'
p913
I458664
sS'N29039|23157|10.0'
p914
I763226
sS'N28682|0|10.0'
p915
I477924
sS'N28847|49662|10.0'
p916
I1135216
sS'N28889|13949|10.0'
p917
I788505
sS'N28941|73898|10.0'
p918
I609136
sS'N28161|87242|10.0'
p919
I1152072
sS'N29051|89258|10.0'
p920
I93898
sS'N28613|15536|10.0'
p921
I50563
sS'N28429|92232|10.0'
p922
I137237
sS'N28193|52150|10.0'
p923
I713868
sS'N28588|90382|10.0'
p924
I250398
sS'N28469|54309|10.0'
p925
I157702
sS'N29067|15308|10.0'
p926
I133625
sS'N28507|85876|10.0'
p927
I320222
sS'N28573|46884|10.0'
p928
I942606
sS'N28467|41535|10.0'
p929
I170945
sS'N28216|99527|10.0'
p930
I859536
sS'N28833|70083|10.0'
p931
I1096698
sS'N29030|59046|10.0'
p932
I817398
sS'N28251|24836|10.0'
p933
I282902
sS'N28442|1965|10.0'
p934
I235953
sS'N28891|76848|10.0'
p935
I167334
sS'N28580|75044|10.0'
p936
I605524
sS'N29128|5127|10.0'
p937
I1047340
sS'N28924|17926|10.0'
p938
I1011229
sS'N28202|60114|10.0'
p939
I796933
sS'N28464|48027|10.0'
p940
I1153276
sS'N29139|41711|10.0'
p941
I410512
sS'N28412|51747|10.0'
p942
I37319
sS'N29041|34720|10.0'
p943
I429773
sS'N28604|10857|10.0'
p944
I237156
sS'N28688|29768|10.0'
p945
I835457
sS'N28788|18428|10.0'
p946
I1062991
sS'N28338|21431|10.0'
p947
I721092
sS'N28987|86716|10.0'
p948
I449033
sS'N28739|72936|10.0'
p949
I483940
sS'N28218|82265|10.0'
p950
I1076234
sS'N28649|54028|10.0'
p951
I681360
sS'N28658|12408|10.0'
p952
I347914
sS'N28726|70919|10.0'
p953
I418939
sS'N28458|18133|10.0'
p954
I136033
sS'N28850|14154|10.0'
p955
I319018
sS'N28375|74571|10.0'
p956
I789709
sS'N28328|94476|10.0'
p957
I128810
sS'N28930|25933|10.0'
p958
I130014
sS'N28396|28437|10.0'
p959
I514037
sS'N28643|88875|10.0'
p960
I512833
sS'N29027|75213|10.0'
p961
I924546
sS'N28906|49165|10.0'
p962
I452645
sS'N28591|59099|10.0'
p963
I853516
sS'N28397|59383|10.0'
p964
I563392
sS'N28283|16531|10.0'
p965
I1117160
sS'N28462|7495|10.0'
p966
I975114
sS'N28548|25019|10.0'
p967
I172149
sS'N28873|81392|10.0'
p968
I532094
sS'N28638|75940|10.0'
p969
I1112347
sS'N28898|28052|10.0'
p970
I228730
sS'N28495|19847|10.0'
p971
I674138
sS'N28953|97981|10.0'
p972
I109547
sS'N28628|52951|10.0'
p973
I1115956
sS'N28633|42752|10.0'
p974
I103527
sS'N28715|34630|10.0'
p975
I595894
sS'N29036|23396|10.0'
p976
I854720
sS'N28869|14720|10.0'
p977
I232342
sS'N28963|65641|10.0'
p978
I497184
sS'N28862|40357|10.0'
p979
I43339
sS'N28487|28398|10.0'
p980
I1090678
sS'N28230|59114|10.0'
p981
I570615
sS'N28751|10719|10.0'
p982
I323834
sS'N28621|41730|10.0'
p983
I190208
sS'N28408|1634|10.0'
p984
I62601
sS'N28388|76656|10.0'
p985
I568207
sS'N29069|52151|10.0'
p986
I654875
sS'N28929|44742|10.0'
p987
I985948
sS'N28222|87822|10.0'
p988
I836661
sS'N28837|55782|10.0'
p989
I272066
sS'N28635|68732|10.0'
p990
I910100
sS'N28471|46193|10.0'
p991
I327446
sS'N28970|65098|10.0'
p992
I1066602
sS'N28311|97489|10.0'
p993
I175761
sS'N28662|39631|10.0'
p994
I914916
sS'N28155|54607|10.0'
p995
I1032895
sS'N29104|20692|10.0'
p996
I337078
sS'N28926|38466|10.0'
p997
I639227
sS'N29127|90740|10.0'
p998
I357544
sS'N28260|21231|10.0'
p999
I1049747
sS'N28935|28841|10.0'
p1000
I223916
sS'N28307|25448|10.0'
p1001
I1030487
s.